target datalayout = "e-m:e-p270:32:32-p271:32:32-p272:64:64-i64:64-i128:128-f80:128-n8:16:32:64-S128"
target triple = "x86_64-pc-linux-gnu"

%struct.ItemPointerData = type { %struct.BlockIdData, i16 }
%struct.BlockIdData = type { i16, i16 }
%struct.TM_IndexDelete = type { %struct.ItemPointerData, i16 }

; Function Attrs: inlinehint nounwind uwtable
define internal i32 @pg_cmp_s16(i16 noundef signext %0, i16 noundef signext %1) #2 {
  %3 = alloca i16, align 2
  %4 = alloca i16, align 2
  store i16 %0, ptr %3, align 2
  store i16 %1, ptr %4, align 2
  %5 = load i16, ptr %3, align 2
  %6 = sext i16 %5 to i32
  %7 = load i16, ptr %4, align 2
  %8 = sext i16 %7 to i32
  %9 = sub i32 %6, %8
  ret i32 %9
}

; Function Attrs: nounwind uwtable
define internal i32 @_bt_delitems_cmp(ptr noundef %0, ptr noundef %1) #0 {
  %3 = alloca ptr, align 8
  %4 = alloca ptr, align 8
  %5 = alloca ptr, align 8
  %6 = alloca ptr, align 8
  store ptr %0, ptr %3, align 8
  store ptr %1, ptr %4, align 8
  call void @llvm.lifetime.start.p0(i64 8, ptr %5) #8
  %7 = load ptr, ptr %3, align 8
  store ptr %7, ptr %5, align 8
  call void @llvm.lifetime.start.p0(i64 8, ptr %6) #8
  %8 = load ptr, ptr %4, align 8
  store ptr %8, ptr %6, align 8
  %9 = load ptr, ptr %5, align 8
  %10 = getelementptr inbounds nuw %struct.TM_IndexDelete, ptr %9, i32 0, i32 1
  %11 = load i16, ptr %10, align 2
  %12 = load ptr, ptr %6, align 8
  %13 = getelementptr inbounds nuw %struct.TM_IndexDelete, ptr %12, i32 0, i32 1
  %14 = load i16, ptr %13, align 2
  %15 = call i32 @pg_cmp_s16(i16 noundef signext %11, i16 noundef signext %14)
  call void @llvm.lifetime.end.p0(i64 8, ptr %6) #8
  call void @llvm.lifetime.end.p0(i64 8, ptr %5) #8
  ret i32 %15
}