; Function Attrs: mustprogress nofree norecurse nosync nounwind willreturn memory(argmem: read) uwtable
define internal range(i32 -65535, 65536) i32 @_bt_delitems_cmp(ptr noundef readonly captures(none) %0, ptr noundef readonly captures(none) %1) #7 {
  %3 = getelementptr inbounds nuw i8, ptr %0, i64 6
  %4 = load i16, ptr %3, align 2
  %5 = getelementptr inbounds nuw i8, ptr %1, i64 6
  %6 = load i16, ptr %5, align 2
  %7 = sext i16 %4 to i32
  %8 = sext i16 %6 to i32
  %9 = sub nsw i32 %7, %8
  ret i32 %9
}